target datalayout = "e-m:e-p270:32:32-p271:32:32-p272:64:64-i64:64-i128:128-f80:128-n8:16:32:64-S128"
target triple = "x86_64-pc-linux-gnu"

%struct.ident_t = type { i32, i32, i32, i32, ptr }

@1 = private unnamed_addr constant %struct.ident_t { i32 0, i32 514, i32 0, i32 22, ptr @0 }, align 8

; Function Attrs: alwaysinline norecurse nounwind uwtable
define internal void @_ZNK5faiss9IndexHNSW14search_level_0ElPKflPKiS2_PfPliiPKNS_16SearchParametersE.omp_outlined.21(ptr noalias noundef %0, ptr noalias noundef %1, ptr noundef nonnull align 8 dereferenceable(8) %2, ptr noundef nonnull align 8 dereferenceable(8) %3, ptr noundef nonnull align 8 dereferenceable(8) %4) #12 {
  %6 = alloca ptr, align 8
  %7 = alloca ptr, align 8
  %8 = alloca ptr, align 8
  %9 = alloca ptr, align 8
  %10 = alloca ptr, align 8
  %11 = alloca i64, align 8
  %12 = alloca i64, align 8
  %13 = alloca i64, align 8
  %14 = alloca i64, align 8
  %15 = alloca i64, align 8
  %16 = alloca i64, align 8
  %17 = alloca i64, align 8
  %18 = alloca i32, align 4
  %19 = alloca i64, align 8
  store ptr %0, ptr %6, align 8, !tbaa !104
  store ptr %1, ptr %7, align 8, !tbaa !104
  store ptr %2, ptr %8, align 8, !tbaa !47
  store ptr %3, ptr %9, align 8, !tbaa !47
  store ptr %4, ptr %10, align 8, !tbaa !174
  %20 = load ptr, ptr %8, align 8, !tbaa !47
  %21 = load ptr, ptr %9, align 8, !tbaa !47
  %22 = load ptr, ptr %10, align 8, !tbaa !174
  call void @llvm.lifetime.start.p0(i64 8, ptr %11) #6
  call void @llvm.lifetime.start.p0(i64 8, ptr %12) #6
  %23 = load i64, ptr %21, align 8, !tbaa !9
  %24 = load i64, ptr %20, align 8, !tbaa !9
  %25 = mul nsw i64 %23, %24
  store i64 %25, ptr %12, align 8, !tbaa !9
  call void @llvm.lifetime.start.p0(i64 8, ptr %13) #6
  %26 = load i64, ptr %12, align 8, !tbaa !9
  %27 = sub nsw i64 %26, 0
  %28 = sdiv i64 %27, 1
  %29 = sub nsw i64 %28, 1
  store i64 %29, ptr %13, align 8, !tbaa !9
  call void @llvm.lifetime.start.p0(i64 8, ptr %14) #6
  store i64 0, ptr %14, align 8, !tbaa !9
  call void @llvm.lifetime.end.p0(i64 8, ptr %14) #6
  %30 = load i64, ptr %12, align 8, !tbaa !9
  %31 = icmp slt i64 0, %30
  br i1 %31, label %32, label %71

32:                                               ; preds = %5
  call void @llvm.lifetime.start.p0(i64 8, ptr %15) #6
  store i64 0, ptr %15, align 8, !tbaa !9
  call void @llvm.lifetime.start.p0(i64 8, ptr %16) #6
  %33 = load i64, ptr %13, align 8, !tbaa !9
  store i64 %33, ptr %16, align 8, !tbaa !9
  call void @llvm.lifetime.start.p0(i64 8, ptr %17) #6
  store i64 1, ptr %17, align 8, !tbaa !9
  call void @llvm.lifetime.start.p0(i64 4, ptr %18) #6
  store i32 0, ptr %18, align 4, !tbaa !39
  call void @llvm.lifetime.start.p0(i64 8, ptr %19) #6
  %34 = load ptr, ptr %6, align 8
  %35 = load i32, ptr %34, align 4, !tbaa !39
  call void @__kmpc_for_static_init_8(ptr @1, i32 %35, i32 34, ptr %18, ptr %15, ptr %16, ptr %17, i64 1, i64 1)
  %36 = load i64, ptr %16, align 8, !tbaa !9
  %37 = load i64, ptr %13, align 8, !tbaa !9
  %38 = icmp sgt i64 %36, %37
  br i1 %38, label %39, label %41

39:                                               ; preds = %32
  %40 = load i64, ptr %13, align 8, !tbaa !9
  br label %43

41:                                               ; preds = %32
  %42 = load i64, ptr %16, align 8, !tbaa !9
  br label %43

43:                                               ; preds = %41, %39
  %44 = phi i64 [ %40, %39 ], [ %42, %41 ]
  store i64 %44, ptr %16, align 8, !tbaa !9
  %45 = load i64, ptr %15, align 8, !tbaa !9
  store i64 %45, ptr %11, align 8, !tbaa !9
  br label %46

46:                                               ; preds = %64, %43
  %47 = load i64, ptr %11, align 8, !tbaa !9
  %48 = load i64, ptr %16, align 8, !tbaa !9
  %49 = icmp sle i64 %47, %48
  br i1 %49, label %51, label %50

50:                                               ; preds = %46
  br label %67

51:                                               ; preds = %46
  %52 = load i64, ptr %11, align 8, !tbaa !9
  %53 = mul nsw i64 %52, 1
  %54 = add nsw i64 0, %53
  store i64 %54, ptr %19, align 8, !tbaa !9
  %55 = load ptr, ptr %22, align 8, !tbaa !11
  %56 = load i64, ptr %19, align 8, !tbaa !9
  %57 = getelementptr inbounds float, ptr %55, i64 %56
  %58 = load float, ptr %57, align 4, !tbaa !51
  %59 = fneg float %58
  %60 = load ptr, ptr %22, align 8, !tbaa !11
  %61 = load i64, ptr %19, align 8, !tbaa !9
  %62 = getelementptr inbounds float, ptr %60, i64 %61
  store float %59, ptr %62, align 4, !tbaa !51
  br label %63

63:                                               ; preds = %51
  br label %64

64:                                               ; preds = %63
  %65 = load i64, ptr %11, align 8, !tbaa !9
  %66 = add nsw i64 %65, 1
  store i64 %66, ptr %11, align 8, !tbaa !9
  br label %46

67:                                               ; preds = %50
  br label %68

68:                                               ; preds = %67
  %69 = load ptr, ptr %6, align 8
  %70 = load i32, ptr %69, align 4, !tbaa !39
  call void @__kmpc_for_static_fini(ptr @1, i32 %70)
  call void @llvm.lifetime.end.p0(i64 8, ptr %19) #6
  call void @llvm.lifetime.end.p0(i64 4, ptr %18) #6
  call void @llvm.lifetime.end.p0(i64 8, ptr %17) #6
  call void @llvm.lifetime.end.p0(i64 8, ptr %16) #6
  call void @llvm.lifetime.end.p0(i64 8, ptr %15) #6
  br label %71

71:                                               ; preds = %68, %5
  call void @llvm.lifetime.end.p0(i64 8, ptr %13) #6
  call void @llvm.lifetime.end.p0(i64 8, ptr %12) #6
  call void @llvm.lifetime.end.p0(i64 8, ptr %11) #6
  ret void
}