; Function Attrs: alwaysinline norecurse nounwind uwtable
define internal void @_ZNK5faiss9IndexHNSW14search_level_0ElPKflPKiS2_PfPliiPKNS_16SearchParametersE.omp_outlined.21(ptr noalias noundef readonly captures(none) %0, ptr noalias readnone captures(none) %1, ptr noundef nonnull readonly align 8 captures(none) dereferenceable(8) %2, ptr noundef nonnull readonly align 8 captures(none) dereferenceable(8) %3, ptr noundef nonnull readonly align 8 captures(none) dereferenceable(8) %4) #12 {
  %6 = alloca i64, align 8
  %7 = alloca i64, align 8
  %8 = alloca i64, align 8
  %9 = alloca i32, align 4
  %10 = load i64, ptr %3, align 8, !tbaa !50
  %11 = load i64, ptr %2, align 8, !tbaa !50
  %12 = mul nsw i64 %11, %10
  %13 = icmp sgt i64 %12, 0
  br i1 %13, label %14, label %26

14:                                               ; preds = %5
  %15 = add nsw i64 %12, -1
  call void @llvm.lifetime.start.p0(i64 8, ptr nonnull %6) #13
  store i64 0, ptr %6, align 8, !tbaa !50
  call void @llvm.lifetime.start.p0(i64 8, ptr nonnull %7) #13
  store i64 %15, ptr %7, align 8, !tbaa !50
  call void @llvm.lifetime.start.p0(i64 8, ptr nonnull %8) #13
  store i64 1, ptr %8, align 8, !tbaa !50
  call void @llvm.lifetime.start.p0(i64 4, ptr nonnull %9) #13
  store i32 0, ptr %9, align 4, !tbaa !62
  %16 = load i32, ptr %0, align 4, !tbaa !62
  call void @__kmpc_for_static_init_8(ptr nonnull @1, i32 %16, i32 34, ptr nonnull %9, ptr nonnull %6, ptr nonnull %7, ptr nonnull %8, i64 1, i64 1)
  %17 = load i64, ptr %7, align 8, !tbaa !50
  %18 = call i64 @llvm.smin.i64(i64 %17, i64 %15)
  store i64 %18, ptr %7, align 8, !tbaa !50
  %19 = load i64, ptr %6, align 8, !tbaa !50
  %.not14 = icmp sgt i64 %19, %18
  br i1 %.not14, label %._crit_edge, label %.lr.ph

.lr.ph:                                           ; preds = %14
  %20 = load ptr, ptr %4, align 8, !tbaa !51
  br label %21

21:                                               ; preds = %.lr.ph, %21
  %.015 = phi i64 [ %19, %.lr.ph ], [ %25, %21 ]
  %22 = getelementptr inbounds float, ptr %20, i64 %.015
  %23 = load float, ptr %22, align 4, !tbaa !99
  %24 = fneg float %23
  store float %24, ptr %22, align 4, !tbaa !99
  %25 = add i64 %.015, 1
  %exitcond.not = icmp eq i64 %.015, %18
  br i1 %exitcond.not, label %._crit_edge, label %21

._crit_edge:                                      ; preds = %21, %14
  call void @__kmpc_for_static_fini(ptr nonnull @1, i32 %16)
  call void @llvm.lifetime.end.p0(i64 4, ptr nonnull %9) #13
  call void @llvm.lifetime.end.p0(i64 8, ptr nonnull %8) #13
  call void @llvm.lifetime.end.p0(i64 8, ptr nonnull %7) #13
  call void @llvm.lifetime.end.p0(i64 8, ptr nonnull %6) #13
  br label %26

26:                                               ; preds = %._crit_edge, %5
  ret void
}